target datalayout = "e-m:e-p270:32:32-p271:32:32-p272:64:64-i64:64-i128:128-f80:128-n8:16:32:64-S128"
target triple = "x86_64-pc-linux-gnu"

%struct.expert_field = type { i32, i32 }
%struct.isis_data = type { i8, i8, i16, ptr, ptr }

@hf_isis_lsp_originating_lsp_buffer_size = internal global i32 0, align 4
@ei_isis_lsp_short_clv = internal global %struct.expert_field zeroinitializer, align 4
@.str.833 = private unnamed_addr constant [34 x i8] c"short lsp partition DIS(%d vs %d)\00", align 1

; Function Attrs: null_pointer_is_valid sspstrong uwtable
define internal void @dissect_lsp_ori_buffersize_clv(ptr noundef %0, ptr noundef %1, ptr noundef %2, i32 noundef %3, ptr noundef %4, i32 noundef %5) #0 {
  %7 = alloca ptr, align 8
  %8 = alloca ptr, align 8
  %9 = alloca ptr, align 8
  %10 = alloca i32, align 4
  %11 = alloca ptr, align 8
  %12 = alloca i32, align 4
  store ptr %0, ptr %7, align 8
  store ptr %1, ptr %8, align 8
  store ptr %2, ptr %9, align 8
  store i32 %3, ptr %10, align 4
  store ptr %4, ptr %11, align 8
  store i32 %5, ptr %12, align 4
  %13 = load i32, ptr %12, align 4
  %14 = icmp ne i32 %13, 2
  br i1 %14, label %15, label %26

15:                                               ; preds = %6
  %16 = load ptr, ptr %9, align 8
  %17 = load ptr, ptr %8, align 8
  %18 = load ptr, ptr %7, align 8
  %19 = load i32, ptr %10, align 4
  %20 = load i32, ptr %12, align 4
  %21 = load ptr, ptr %11, align 8
  %22 = getelementptr inbounds nuw %struct.isis_data, ptr %21, i32 0, i32 1
  %23 = load i8, ptr %22, align 1
  %24 = zext i8 %23 to i32
  %25 = call ptr (ptr, ptr, ptr, ptr, i32, i32, ptr, ...) @proto_tree_add_expert_format(ptr noundef %16, ptr noundef %17, ptr noundef @ei_isis_lsp_short_clv, ptr noundef %18, i32 noundef %19, i32 noundef -1, ptr noundef @.str.833, i32 noundef %20, i32 noundef %24)
  br label %33

26:                                               ; preds = %6
  %27 = load ptr, ptr %9, align 8
  %28 = load i32, ptr @hf_isis_lsp_originating_lsp_buffer_size, align 4
  %29 = load ptr, ptr %7, align 8
  %30 = load i32, ptr %10, align 4
  %31 = load i32, ptr %12, align 4
  %32 = call ptr @proto_tree_add_item(ptr noundef %27, i32 noundef %28, ptr noundef %29, i32 noundef %30, i32 noundef %31, i32 noundef 0)
  br label %33

33:                                               ; preds = %26, %15
  ret void
}