; Function Attrs: null_pointer_is_valid sspstrong uwtable
define internal void @dissect_lsp_ori_buffersize_clv(ptr noundef %0, ptr noundef %1, ptr noundef %2, i32 noundef %3, ptr noundef readonly captures(none) %4, i32 noundef %5) #0 {
  %.not = icmp eq i32 %5, 2
  br i1 %.not, label %12, label %7

7:                                                ; preds = %6
  %8 = getelementptr inbounds nuw i8, ptr %4, i64 1
  %9 = load i8, ptr %8, align 1
  %10 = zext i8 %9 to i32
  %11 = tail call ptr (ptr, ptr, ptr, ptr, i32, i32, ptr, ...) @proto_tree_add_expert_format(ptr noundef %2, ptr noundef %1, ptr noundef nonnull @ei_isis_lsp_short_clv, ptr noundef %0, i32 noundef %3, i32 noundef -1, ptr noundef nonnull @.str.833, i32 noundef %5, i32 noundef %10)
  br label %15

12:                                               ; preds = %6
  %13 = load i32, ptr @hf_isis_lsp_originating_lsp_buffer_size, align 4
  %14 = tail call ptr @proto_tree_add_item(ptr noundef %2, i32 noundef %13, ptr noundef %0, i32 noundef %3, i32 noundef 2, i32 noundef 0)
  br label %15

15:                                               ; preds = %12, %7
  ret void
}